target datalayout = "e-m:e-p270:32:32-p271:32:32-p272:64:64-i64:64-i128:128-f80:128-n8:16:32:64-S128"
target triple = "x86_64-pc-linux-gnu"

@stdout = external global ptr, align 8
@.str.13 = private unnamed_addr constant [8 x i8] c"_LOADED\00", align 1
@.str.14 = private unnamed_addr constant [4 x i8] c"jit\00", align 1
@.str.23 = private unnamed_addr constant [7 x i8] c"status\00", align 1
@.str.24 = private unnamed_addr constant [8 x i8] c"JIT: ON\00", align 1
@.str.25 = private unnamed_addr constant [9 x i8] c"JIT: OFF\00", align 1

; Function Attrs: nounwind uwtable
define internal void @print_jit_status(ptr noundef %0) #0 {
  %2 = alloca ptr, align 8
  %3 = alloca i32, align 4
  %4 = alloca ptr, align 8
  store ptr %0, ptr %2, align 8, !tbaa !14
  call void @llvm.lifetime.start.p0(i64 4, ptr %3) #5
  call void @llvm.lifetime.start.p0(i64 8, ptr %4) #5
  %5 = load ptr, ptr %2, align 8, !tbaa !14
  call void @lua_getfield(ptr noundef %5, i32 noundef -10000, ptr noundef @.str.13)
  %6 = load ptr, ptr %2, align 8, !tbaa !14
  call void @lua_getfield(ptr noundef %6, i32 noundef -1, ptr noundef @.str.14)
  %7 = load ptr, ptr %2, align 8, !tbaa !14
  call void @lua_remove(ptr noundef %7, i32 noundef -2)
  %8 = load ptr, ptr %2, align 8, !tbaa !14
  call void @lua_getfield(ptr noundef %8, i32 noundef -1, ptr noundef @.str.23)
  %9 = load ptr, ptr %2, align 8, !tbaa !14
  call void @lua_remove(ptr noundef %9, i32 noundef -2)
  %10 = load ptr, ptr %2, align 8, !tbaa !14
  %11 = call i32 @lua_gettop(ptr noundef %10)
  store i32 %11, ptr %3, align 4, !tbaa !4
  %12 = load ptr, ptr %2, align 8, !tbaa !14
  call void @lua_call(ptr noundef %12, i32 noundef 0, i32 noundef -1)
  %13 = load ptr, ptr %2, align 8, !tbaa !14
  %14 = load i32, ptr %3, align 4, !tbaa !4
  %15 = call i32 @lua_toboolean(ptr noundef %13, i32 noundef %14)
  %16 = icmp ne i32 %15, 0
  %17 = select i1 %16, ptr @.str.24, ptr @.str.25
  %18 = load ptr, ptr @stdout, align 8, !tbaa !20
  %19 = call i32 @fputs(ptr noundef %17, ptr noundef %18)
  %20 = load i32, ptr %3, align 4, !tbaa !4
  %21 = add nsw i32 %20, 1
  store i32 %21, ptr %3, align 4, !tbaa !4
  br label %22

22:                                               ; preds = %33, %1
  %23 = load ptr, ptr %2, align 8, !tbaa !14
  %24 = load i32, ptr %3, align 4, !tbaa !4
  %25 = call ptr @lua_tolstring(ptr noundef %23, i32 noundef %24, ptr noundef null)
  store ptr %25, ptr %4, align 8, !tbaa !11
  %26 = icmp ne ptr %25, null
  br i1 %26, label %27, label %36

27:                                               ; preds = %22
  %28 = load ptr, ptr @stdout, align 8, !tbaa !20
  %29 = call i32 @putc(i32 noundef 32, ptr noundef %28)
  %30 = load ptr, ptr %4, align 8, !tbaa !11
  %31 = load ptr, ptr @stdout, align 8, !tbaa !20
  %32 = call i32 @fputs(ptr noundef %30, ptr noundef %31)
  br label %33

33:                                               ; preds = %27
  %34 = load i32, ptr %3, align 4, !tbaa !4
  %35 = add nsw i32 %34, 1
  store i32 %35, ptr %3, align 4, !tbaa !4
  br label %22, !llvm.loop !31

36:                                               ; preds = %22
  %37 = load ptr, ptr @stdout, align 8, !tbaa !20
  %38 = call i32 @putc(i32 noundef 10, ptr noundef %37)
  %39 = load ptr, ptr %2, align 8, !tbaa !14
  call void @lua_settop(ptr noundef %39, i32 noundef 0)
  call void @llvm.lifetime.end.p0(i64 8, ptr %4) #5
  call void @llvm.lifetime.end.p0(i64 4, ptr %3) #5
  ret void
}