; Function Attrs: nounwind uwtable
define internal fastcc void @print_jit_status(ptr noundef %0) unnamed_addr #0 {
  tail call void @lua_getfield(ptr noundef %0, i32 noundef -10000, ptr noundef nonnull @.str.13) #9
  tail call void @lua_getfield(ptr noundef %0, i32 noundef -1, ptr noundef nonnull @.str.14) #9
  tail call void @lua_remove(ptr noundef %0, i32 noundef -2) #9
  tail call void @lua_getfield(ptr noundef %0, i32 noundef -1, ptr noundef nonnull @.str.23) #9
  tail call void @lua_remove(ptr noundef %0, i32 noundef -2) #9
  %2 = tail call i32 @lua_gettop(ptr noundef %0) #9
  tail call void @lua_call(ptr noundef %0, i32 noundef 0, i32 noundef -1) #9
  %3 = tail call i32 @lua_toboolean(ptr noundef %0, i32 noundef %2) #9
  %.not = icmp eq i32 %3, 0
  %4 = select i1 %.not, ptr @.str.25, ptr @.str.24
  %5 = load ptr, ptr @stdout, align 8, !tbaa !15
  %6 = tail call i32 @fputs(ptr noundef nonnull %4, ptr noundef %5)
  %.016 = add nsw i32 %2, 1
  %7 = tail call ptr @lua_tolstring(ptr noundef %0, i32 noundef %.016, ptr noundef null) #9
  %.not1517 = icmp eq ptr %7, null
  br i1 %.not1517, label %._crit_edge, label %.lr.ph

.lr.ph:                                           ; preds = %1, %.lr.ph
  %8 = phi ptr [ %13, %.lr.ph ], [ %7, %1 ]
  %.018 = phi i32 [ %.0, %.lr.ph ], [ %.016, %1 ]
  %9 = load ptr, ptr @stdout, align 8, !tbaa !15
  %10 = tail call i32 @putc(i32 noundef 32, ptr noundef %9)
  %11 = load ptr, ptr @stdout, align 8, !tbaa !15
  %12 = tail call i32 @fputs(ptr noundef nonnull %8, ptr noundef %11)
  %.0 = add nsw i32 %.018, 1
  %13 = tail call ptr @lua_tolstring(ptr noundef %0, i32 noundef %.0, ptr noundef null) #9
  %.not15 = icmp eq ptr %13, null
  br i1 %.not15, label %._crit_edge, label %.lr.ph, !llvm.loop !26

._crit_edge:                                      ; preds = %.lr.ph, %1
  %14 = load ptr, ptr @stdout, align 8, !tbaa !15
  %15 = tail call i32 @putc(i32 noundef 10, ptr noundef %14)
  tail call void @lua_settop(ptr noundef %0, i32 noundef 0) #9
  ret void
}